Certificate:
    Data:
        Version: 3 (0x2)
        Serial Number:
            52:46:9a:a7:d2:28:59:9b:00:3a:f3:6c:7a:1d:34:24:62:e2:b9:09
        Signature Algorithm: sha256WithRSAEncryption
        Issuer: C=ES, ST=Barcelona, O=Network Security Org, OU=Certification, CN=NS Root CA
        Validity
            Not Before: Apr  1 11:00:00 2022 GMT
            Not After : Mar 31 11:00:00 2032 GMT
        Subject: C=ES, ST=Barcelona, O=Network Security Org, OU=Certification, CN=NS Root CA
        Subject Public Key Info:
            Public Key Algorithm: rsaEncryption
                RSA Public-Key: (4096 bit)
                Modulus:
                    00:b8:a9:ae:42:c6:b1:c7:5c:9d:2c:3c:c0:49:45:
                    ac:97:20:6f:00:8e:5f:73:2d:e1:28:e4:a6:db:37:
                    e0:7e:18:a2:d9:3f:4a:63:c2:74:42:72:8b:7d:56:
                    be:3d:dc:e8:30:54:c5:f5:fb:26:f3:4b:29:b9:44:
                    e9:da:05:b4:12:be:f7:e3:22:e5:6d:b7:cf:4d:95:
                    91:51:2e:7a:93:17:ba:c0:00:b5:be:b0:3d:5a:9e:
                    cf:75:92:8e:b7:95:fa:9f:41:78:16:3b:32:b1:a5:
                    96:a0:4f:de:b0:b3:df:a3:d0:f8:e9:7c:41:58:64:
                    11:ba:07:c3:4e:77:8c:0a:bd:0d:47:a5:c9:96:1d:
                    05:46:e4:a5:52:e7:94:e2:1d:28:50:fd:05:12:f1:
                    75:9b:36:7c:f9:9c:3c:63:10:21:f9:a9:2d:1e:41:
                    02:13:ff:51:8c:bc:3c:28:3f:9b:f1:58:b8:78:c9:
                    f2:2c:b0:3c:96:7d:aa:0c:4b:d9:af:c5:49:f0:14:
                    1e:f9:23:46:10:e7:df:ea:58:47:97:2b:be:b6:eb:
                    33:94:28:eb:54:a8:55:05:01:e8:a6:b4:b6:c9:1d:
                    1f:81:05:8a:d3:af:4f:df:ce:49:44:0d:48:e2:a3:
                    18:c9:6b:87:38:55:07:77:60:63:c3:52:8f:05:23:
                    5b:ef:c6:49:67:54:c6:17:33:45:d7:85:b3:07:bd:
                    e3:88:15:5f:b3:86:09:f3:85:bf:e6:6b:6f:d1:74:
                    fd:52:78:06:e0:ec:e1:72:23:01:e3:c5:9f:3e:d6:
                    83:dd:93:36:5a:2a:0e:41:91:bf:88:b2:aa:28:50:
                    ff:bc:16:0e:d3:59:2f:6f:d4:f8:7c:85:b3:01:98:
                    74:e4:6e:60:1e:c3:c0:c9:87:f6:c2:82:d4:62:71:
                    a5:e6:02:ea:6b:b5:89:1d:18:7d:ef:fe:7d:be:72:
                    79:32:be:99:1f:f4:b6:ec:7f:eb:fe:cd:cd:0d:e1:
                    f8:5f:fa:67:42:e6:14:f0:5e:d0:58:2d:1a:59:34:
                    3e:75:50:91:e8:80:17:2d:70:4f:b2:4f:13:66:57:
                    91:bb:c7:ea:ee:db:51:02:93:ca:35:52:b7:8e:ff:
                    37:64:61:bb:d5:6d:d8:18:74:02:61:45:bf:ee:b7:
                    ac:9b:46:59:f6:22:e0:a7:d4:ca:ed:5e:2e:3f:08:
                    48:66:e2:bb:d9:bf:06:34:b3:4b:55:e0:cc:df:e1:
                    93:fe:c9:0c:ee:f5:e9:c5:4c:35:b4:6a:65:bf:72:
                    82:57:cb:da:ab:0b:f9:d5:80:5c:ec:1a:52:98:34:
                    c0:81:f0:1b:b9:12:94:c5:e0:df:22:f8:b5:1f:50:
                    03:16:05
                Exponent: 65537 (0x10001)
        X509v3 extensions:
            X509v3 Basic Constraints: critical
                CA:TRUE
            X509v3 Subject Key Identifier: 
                80:EE:00:EA:DF:E2:54:F0:61:22:4F:A6:C3:5E:B5:73:A0:21:F6:F5
            X509v3 Authority Key Identifier: 
                keyid:80:EE:00:EA:DF:E2:54:F0:61:22:4F:A6:C3:5E:B5:73:A0:21:F6:F5

            X509v3 Key Usage: critical
                Certificate Sign, CRL Sign
    Signature Algorithm: sha256WithRSAEncryption
         6f:f8:35:5a:7c:37:a0:3b:f2:d6:ba:ec:9b:bd:66:df:b9:b4:
         ee:5d:58:e6:18:4c:c2:1b:4a:6e:d3:3e:29:22:ae:99:9e:aa:
         4c:0a:f4:ec:99:99:82:0b:d1:9c:cc:ff:58:77:74:40:64:04:
         0a:b3:94:77:23:87:47:8d:92:82:c2:9a:03:37:12:af:c9:b6:
         47:1b:e0:30:99:7d:a0:22:7c:67:8b:73:fc:ab:04:11:26:a5:
         b1:30:53:aa:83:15:06:78:2b:7b:dd:c2:71:f7:bd:a7:0e:ec:
         59:f2:7a:7b:f9:93:78:e7:94:2b:a2:f2:64:9e:20:1d:9d:47:
         78:3f:a7:4f:e2:dd:4b:7d:95:55:96:b9:c5:74:cf:62:6d:e2:
         fd:cd:b4:38:ca:67:fb:a4:0a:5c:78:45:36:95:9d:48:e0:2c:
         69:82:e2:f8:29:32:98:dc:23:6b:25:22:48:e1:f1:0d:66:36:
         8f:a5:b6:00:cb:2a:52:60:66:b1:2d:db:10:b7:16:6c:5e:3a:
         d3:61:46:bf:3f:02:9a:a8:e4:39:e8:5a:83:79:b8:c0:06:fc:
         b2:a8:49:19:80:fc:06:68:94:6f:f9:b0:91:24:03:f8:59:6a:
         db:e4:d5:64:07:28:ca:60:9c:aa:b9:04:1f:9f:74:e3:2a:6d:
         98:b2:1b:9e:8c:ba:2f:73:33:e1:d3:40:6a:6a:b9:ad:a6:da:
         8a:2f:03:6f:29:ef:6b:6d:8e:7a:74:04:f5:6c:46:a6:20:be:
         70:a3:dc:0e:cd:32:7a:ec:62:44:52:58:a4:24:5e:b5:4f:b4:
         c8:52:a1:1f:eb:12:ae:69:8a:49:3a:f3:82:4b:3a:c1:b0:05:
         16:87:7c:fe:a1:03:8a:57:d6:4e:c8:e3:72:b7:3f:9e:5e:3d:
         7c:24:35:85:0d:ee:7c:fc:62:75:9f:0e:72:72:62:53:b4:0b:
         9f:95:85:45:60:e2:63:bf:2b:2b:58:2a:15:91:cf:75:9d:28:
         c8:a4:56:50:87:b2:e8:11:17:af:ad:6e:e4:38:a2:33:25:e5:
         6f:3a:88:89:25:ee:1e:9b:c7:4a:8b:ac:9e:32:6d:e0:75:46:
         87:a8:1f:87:78:ee:00:1d:3d:a8:ce:f8:1f:e6:92:ae:56:6e:
         9b:6f:ca:fc:f9:fd:55:1c:6a:f9:a0:15:a1:50:ae:9f:67:26:
         20:9e:a8:ae:8b:e8:64:65:02:78:dc:e8:96:cb:e6:5a:d7:07:
         c6:53:41:d4:59:e9:4b:a1:a0:e1:71:13:48:9f:54:07:10:6e:
         45:17:ec:70:5b:c8:7b:60:0c:c0:96:2e:f9:06:07:29:b8:47:
         8a:a0:07:cd:6f:44:b4:1f
-----BEGIN CERTIFICATE-----
MIIFyzCCA7OgAwIBAgIUUkaap9IoWZsAOvNseh00JGLiuQkwDQYJKoZIhvcNAQEL
BQAwbTELMAkGA1UEBhMCRVMxEjAQBgNVBAgMCUJhcmNlbG9uYTEdMBsGA1UECgwU
TmV0d29yayBTZWN1cml0eSBPcmcxFjAUBgNVBAsMDUNlcnRpZmljYXRpb24xEzAR
BgNVBAMMCk5TIFJvb3QgQ0EwHhcNMjIwNDAxMTEwMDAwWhcNMzIwMzMxMTEwMDAw
WjBtMQswCQYDVQQGEwJFUzESMBAGA1UECAwJQmFyY2Vsb25hMR0wGwYDVQQKDBRO
ZXR3b3JrIFNlY3VyaXR5IE9yZzEWMBQGA1UECwwNQ2VydGlmaWNhdGlvbjETMBEG
A1UEAwwKTlMgUm9vdCBDQTCCAiIwDQYJKoZIhvcNAQEBBQADggIPADCCAgoCggIB
ALiprkLGscdcnSw8wElFrJcgbwCOX3Mt4Sjkpts34H4Yotk/SmPCdEJyi31Wvj3c
6DBUxfX7JvNLKblE6doFtBK+9+Mi5W23z02VkVEuepMXusAAtb6wPVqez3WSjreV
+p9BeBY7MrGllqBP3rCz36PQ+Ol8QVhkEboHw053jAq9DUelyZYdBUbkpVLnlOId
KFD9BRLxdZs2fPmcPGMQIfmpLR5BAhP/UYy8PCg/m/FYuHjJ8iywPJZ9qgxL2a/F
SfAUHvkjRhDn3+pYR5crvrbrM5Qo61SoVQUB6Ka0tskdH4EFitOvT9/OSUQNSOKj
GMlrhzhVB3dgY8NSjwUjW+/GSWdUxhczRdeFswe944gVX7OGCfOFv+Zrb9F0/VJ4
BuDs4XIjAePFnz7Wg92TNloqDkGRv4iyqihQ/7wWDtNZL2/U+HyFswGYdORuYB7D
wMmH9sKC1GJxpeYC6mu1iR0Yfe/+fb5yeTK+mR/0tux/6/7NzQ3h+F/6Z0LmFPBe
0FgtGlk0PnVQkeiAFy1wT7JPE2ZXkbvH6u7bUQKTyjVSt47/N2Rhu9Vt2Bh0AmFF
v+63rJtGWfYi4KfUyu1eLj8ISGbiu9m/BjSzS1XgzN/hk/7JDO716cVMNbRqZb9y
glfL2qsL+dWAXOwaUpg0wIHwG7kSlMXg3yL4tR9QAxYFAgMBAAGjYzBhMA8GA1Ud
EwEB/wQFMAMBAf8wHQYDVR0OBBYEFIDuAOrf4lTwYSJPpsNetXOgIfb1MB8GA1Ud
IwQYMBaAFIDuAOrf4lTwYSJPpsNetXOgIfb1MA4GA1UdDwEB/wQEAwIBBjANBgkq
hkiG9w0BAQsFAAOCAgEAb/g1Wnw3oDvy1rrsm71m37m07l1Y5hhMwhtKbtM+KSKu
mZ6qTAr07JmZggvRnMz/WHd0QGQECrOUdyOHR42SgsKaAzcSr8m2RxvgMJl9oCJ8
Z4tz/KsEESalsTBTqoMVBngre93Ccfe9pw7sWfJ6e/mTeOeUK6LyZJ4gHZ1HeD+n
T+LdS32VVZa5xXTPYm3i/c20OMpn+6QKXHhFNpWdSOAsaYLi+CkymNwjayUiSOHx
DWY2j6W2AMsqUmBmsS3bELcWbF4602FGvz8CmqjkOehag3m4wAb8sqhJGYD8BmiU
b/mwkSQD+Flq2+TVZAcoymCcqrkEH5904yptmLIbnoy6L3Mz4dNAamq5rabaii8D
bynva22OenQE9WxGpiC+cKPcDs0yeuxiRFJYpCRetU+0yFKhH+sSrmmKSTrzgks6
wbAFFod8/qEDilfWTsjjcrc/nl49fCQ1hQ3ufPxidZ8OcnJiU7QLn5WFRWDiY78r
K1gqFZHPdZ0oyKRWUIey6BEXr61u5DiiMyXlbzqIiSXuHpvHSousnjJt4HVGh6gf
h3juAB09qM74H+aSrlZum2/K/Pn9VRxq+aAVoVCun2cmIJ6orovoZGUCeNzolsvm
WtcHxlNB1FnpS6Gg4XETSJ9UBxBuRRfscFvIe2AMwJYu+QYHKbhHiqAHzW9EtB8=
-----END CERTIFICATE-----
