Certificate:
    Data:
        Version: 3 (0x2)
        Serial Number:
            52:46:9a:a7:d2:28:59:9b:00:3a:f3:6c:7a:1d:34:24:62:e2:b9:0c
        Signature Algorithm: sha256WithRSAEncryption
        Issuer: C=ES, ST=Barcelona, O=Network Security Org, OU=Certification, CN=NS Root CA
        Validity
            Not Before: Apr  1 11:16:44 2022 GMT
            Not After : Apr  1 11:16:44 2023 GMT
        Subject: C=ES, ST=Barcelona, O=Network Security Org, OU=Web Servers, CN=NS TLS Web Server
        Subject Public Key Info:
            Public Key Algorithm: rsaEncryption
                RSA Public-Key: (2048 bit)
                Modulus:
                    00:e2:fd:ff:14:d2:19:80:b5:31:c8:35:8a:64:5f:
                    cd:2b:3b:d1:2c:9d:97:63:0a:c4:56:16:f5:ed:7a:
                    66:3c:9b:7a:e6:d1:11:08:45:94:74:f3:99:23:80:
                    55:f6:61:f5:33:90:71:d4:03:f1:df:c2:f7:be:a4:
                    9d:15:6c:db:9d:85:84:6b:f8:95:a9:e4:df:ce:f2:
                    3c:24:9d:00:37:ef:18:8d:95:05:85:58:b3:7c:58:
                    82:fe:e3:82:a9:0a:78:f4:f9:91:05:e9:8b:3e:f4:
                    bd:e4:78:f5:0c:db:66:dd:66:ad:4e:fc:76:a8:98:
                    d1:52:50:1b:68:e6:9f:34:bd:70:ee:fe:54:26:58:
                    5b:db:61:66:36:e0:ca:01:74:2c:6b:96:71:ca:c1:
                    b2:c9:b4:0d:ec:e9:7c:03:58:16:b3:ed:6d:f6:53:
                    3b:28:14:e5:50:d4:c5:f7:5e:9c:ef:5d:cd:cd:3c:
                    83:a4:91:d7:8d:ac:1c:d0:12:fe:f5:dd:88:0a:27:
                    04:29:19:b0:64:b8:07:cf:9f:c4:88:e4:ed:97:7d:
                    60:2f:11:89:be:c7:cf:87:a3:bd:a0:ad:9e:5f:1f:
                    5f:b4:3b:67:39:08:b2:cc:05:bb:49:08:38:5d:61:
                    b4:30:cd:4c:c9:11:f4:d0:2d:3f:cd:9d:18:df:49:
                    ba:b3
                Exponent: 65537 (0x10001)
        X509v3 extensions:
            X509v3 Basic Constraints: 
                CA:FALSE
            X509v3 Subject Key Identifier: 
                49:64:64:E7:8C:B7:02:5F:65:5D:F9:98:B0:1B:AD:E6:20:C0:58:BE
            X509v3 Authority Key Identifier: 
                keyid:80:EE:00:EA:DF:E2:54:F0:61:22:4F:A6:C3:5E:B5:73:A0:21:F6:F5

            Authority Information Access: 
                OCSP - URI:http://10.0.2.4

            X509v3 Key Usage: critical
                Digital Signature, Non Repudiation, Key Encipherment, Key Agreement
            X509v3 Extended Key Usage: critical
                TLS Web Server Authentication
            X509v3 Subject Alternative Name: 
                IP Address:10.0.2.5
    Signature Algorithm: sha256WithRSAEncryption
         a5:23:55:2b:95:9e:c8:81:72:5c:a9:87:cd:99:a3:74:84:96:
         be:cb:1c:35:98:fe:7d:89:51:85:6c:7d:e9:50:c1:b7:4a:d3:
         5b:97:fa:60:ec:02:42:3c:e8:65:89:2f:17:32:a8:8f:b7:3b:
         2e:76:7a:41:3f:e4:8a:01:7b:f9:a9:d2:36:23:71:bf:96:34:
         4b:13:41:62:04:c5:fc:11:02:94:a6:17:da:62:7b:d8:47:f8:
         3c:d9:de:f1:e6:3b:dc:d7:80:a9:34:39:25:95:7e:0a:70:ce:
         cc:29:6f:23:97:ab:76:bb:8a:d9:fb:88:4d:88:c4:ee:cc:81:
         eb:c1:97:75:7c:60:b5:d3:e9:25:27:a6:3e:ea:44:f7:e6:83:
         31:eb:d6:50:49:45:08:ec:dd:a5:22:7a:6c:ee:91:dd:70:60:
         08:ce:6e:d2:b0:38:41:62:3c:3e:62:b3:29:2c:17:b9:98:66:
         c5:b0:6d:12:54:70:bb:51:73:45:c1:a6:43:73:02:dd:6f:8e:
         ec:74:9d:07:c4:c2:db:32:02:a5:0c:d4:6b:4a:0e:10:ef:bf:
         5e:34:54:ce:ce:c0:f2:ae:08:75:38:3d:af:f5:aa:69:99:83:
         7d:57:74:b1:15:56:1e:b3:25:0b:ac:35:f3:6e:47:c8:2e:99:
         5f:47:67:7f:f5:dc:7a:de:a7:35:f0:40:94:49:3f:4d:4a:3f:
         e0:93:fa:ff:d3:fc:36:58:34:a1:93:92:0a:71:79:8f:c7:9c:
         a3:1b:cf:f5:d8:a4:6a:10:b7:88:dd:e3:e4:f5:9e:cf:54:10:
         4b:4a:64:6e:c0:30:a6:9d:57:1f:c5:d7:16:72:74:86:0f:32:
         0d:24:20:3b:23:5a:52:03:54:04:c7:24:6d:7f:20:f9:65:d7:
         7e:5b:9c:80:bb:18:30:f2:68:98:02:87:bf:7e:8f:eb:77:3a:
         bf:c4:ec:47:0b:9d:ac:1f:35:10:88:04:be:63:d2:ae:21:19:
         ac:cf:8e:48:ce:91:18:e9:a9:1c:24:d6:21:91:ca:f5:89:94:
         d2:92:a3:fd:1f:29:78:6e:ff:31:cd:63:d2:22:0b:f3:06:44:
         d0:ec:bd:a5:5e:58:72:2a:b4:a8:28:61:a3:66:94:76:03:3f:
         45:22:63:44:f2:f5:78:5b:8d:b7:20:82:3a:68:93:a9:2c:ca:
         4c:8f:33:92:87:5d:ff:84:9b:26:f2:07:a8:01:ae:5c:e7:f1:
         47:37:91:c7:03:a3:25:9f:62:91:3a:78:45:4c:5b:4b:15:64:
         46:da:a9:a1:03:f6:9a:f1:c7:50:86:75:b6:89:5e:e7:a1:85:
         a5:15:0f:0b:27:c0:f3:54
-----BEGIN CERTIFICATE-----
MIIFIjCCAwqgAwIBAgIUUkaap9IoWZsAOvNseh00JGLiuQwwDQYJKoZIhvcNAQEL
BQAwbTELMAkGA1UEBhMCRVMxEjAQBgNVBAgMCUJhcmNlbG9uYTEdMBsGA1UECgwU
TmV0d29yayBTZWN1cml0eSBPcmcxFjAUBgNVBAsMDUNlcnRpZmljYXRpb24xEzAR
BgNVBAMMCk5TIFJvb3QgQ0EwHhcNMjIwNDAxMTExNjQ0WhcNMjMwNDAxMTExNjQ0
WjByMQswCQYDVQQGEwJFUzESMBAGA1UECAwJQmFyY2Vsb25hMR0wGwYDVQQKDBRO
ZXR3b3JrIFNlY3VyaXR5IE9yZzEUMBIGA1UECwwLV2ViIFNlcnZlcnMxGjAYBgNV
BAMMEU5TIFRMUyBXZWIgU2VydmVyMIIBIjANBgkqhkiG9w0BAQEFAAOCAQ8AMIIB
CgKCAQEA4v3/FNIZgLUxyDWKZF/NKzvRLJ2XYwrEVhb17XpmPJt65tERCEWUdPOZ
I4BV9mH1M5Bx1APx38L3vqSdFWzbnYWEa/iVqeTfzvI8JJ0AN+8YjZUFhVizfFiC
/uOCqQp49PmRBemLPvS95Hj1DNtm3WatTvx2qJjRUlAbaOafNL1w7v5UJlhb22Fm
NuDKAXQsa5ZxysGyybQN7Ol8A1gWs+1t9lM7KBTlUNTF916c713NzTyDpJHXjawc
0BL+9d2ICicEKRmwZLgHz5/EiOTtl31gLxGJvsfPh6O9oK2eXx9ftDtnOQiyzAW7
SQg4XWG0MM1MyRH00C0/zZ0Y30m6swIDAQABo4G0MIGxMAkGA1UdEwQCMAAwHQYD
VR0OBBYEFElkZOeMtwJfZV35mLAbreYgwFi+MB8GA1UdIwQYMBaAFIDuAOrf4lTw
YSJPpsNetXOgIfb1MCsGCCsGAQUFBwEBBB8wHTAbBggrBgEFBQcwAYYPaHR0cDov
LzEwLjAuMi40MA4GA1UdDwEB/wQEAwID6DAWBgNVHSUBAf8EDDAKBggrBgEFBQcD
ATAPBgNVHREECDAGhwQKAAIFMA0GCSqGSIb3DQEBCwUAA4ICAQClI1UrlZ7IgXJc
qYfNmaN0hJa+yxw1mP59iVGFbH3pUMG3StNbl/pg7AJCPOhliS8XMqiPtzsudnpB
P+SKAXv5qdI2I3G/ljRLE0FiBMX8EQKUphfaYnvYR/g82d7x5jvc14CpNDkllX4K
cM7MKW8jl6t2u4rZ+4hNiMTuzIHrwZd1fGC10+klJ6Y+6kT35oMx69ZQSUUI7N2l
Inps7pHdcGAIzm7SsDhBYjw+YrMpLBe5mGbFsG0SVHC7UXNFwaZDcwLdb47sdJ0H
xMLbMgKlDNRrSg4Q779eNFTOzsDyrgh1OD2v9appmYN9V3SxFVYesyULrDXzbkfI
LplfR2d/9dx63qc18ECUST9NSj/gk/r/0/w2WDShk5IKcXmPx5yjG8/12KRqELeI
3ePk9Z7PVBBLSmRuwDCmnVcfxdcWcnSGDzINJCA7I1pSA1QExyRtfyD5Zdd+W5yA
uxgw8miYAoe/fo/rdzq/xOxHC52sHzUQiAS+Y9KuIRmsz45IzpEY6akcJNYhkcr1
iZTSkqP9Hyl4bv8xzWPSIgvzBkTQ7L2lXlhyKrSoKGGjZpR2Az9FImNE8vV4W423
III6aJOpLMpMjzOSh13/hJsm8geoAa5c5/FHN5HHA6Mln2KROnhFTFtLFWRG2qmh
A/aa8cdQhnW2iV7noYWlFQ8LJ8DzVA==
-----END CERTIFICATE-----
